; Function Attrs: mustprogress nofree nounwind willreturn memory(read) uwtable
define hidden noundef zeroext i1 @_ZNK10__cxxabiv129__pointer_to_member_type_info16can_catch_nestedEPKNS_16__shim_type_infoE(ptr noundef nonnull readonly align 8 captures(none) dereferenceable(40) %0, ptr noundef readonly %1) local_unnamed_addr #13 align 2 {
  %3 = icmp eq ptr %1, null
  br i1 %3, label %.thread, label %4

4:                                                ; preds = %2
  %5 = tail call ptr @__dynamic_cast(ptr nonnull %1, ptr nonnull @_ZTIN10__cxxabiv116__shim_type_infoE, ptr nonnull @_ZTIN10__cxxabiv129__pointer_to_member_type_infoE, i64 0) #18
  %6 = icmp eq ptr %5, null
  br i1 %6, label %.thread, label %7

7:                                                ; preds = %4
  %8 = getelementptr inbounds nuw i8, ptr %0, i64 16
  %9 = load i32, ptr %8, align 8, !tbaa !50
  %10 = xor i32 %9, -1
  %11 = getelementptr inbounds nuw i8, ptr %5, i64 16
  %12 = load i32, ptr %11, align 8, !tbaa !50
  %13 = and i32 %12, %10
  %.not = icmp eq i32 %13, 0
  br i1 %.not, label %14, label %.thread

14:                                               ; preds = %7
  %15 = getelementptr inbounds nuw i8, ptr %0, i64 24
  %16 = load ptr, ptr %15, align 8, !tbaa !53
  %17 = getelementptr inbounds nuw i8, ptr %5, i64 24
  %18 = load ptr, ptr %17, align 8, !tbaa !53
  %19 = getelementptr inbounds nuw i8, ptr %16, i64 8
  %20 = load ptr, ptr %19, align 8, !tbaa !4
  %21 = getelementptr inbounds nuw i8, ptr %18, i64 8
  %22 = load ptr, ptr %21, align 8, !tbaa !4
  %23 = icmp eq ptr %20, %22
  br i1 %23, label %24, label %.thread

24:                                               ; preds = %14
  %25 = getelementptr inbounds nuw i8, ptr %0, i64 32
  %26 = load ptr, ptr %25, align 8, !tbaa !54
  %27 = getelementptr inbounds nuw i8, ptr %5, i64 32
  %28 = load ptr, ptr %27, align 8, !tbaa !54
  %29 = getelementptr inbounds nuw i8, ptr %26, i64 8
  %30 = load ptr, ptr %29, align 8, !tbaa !4
  %31 = getelementptr inbounds nuw i8, ptr %28, i64 8
  %32 = load ptr, ptr %31, align 8, !tbaa !4
  %33 = icmp eq ptr %30, %32
  br label %.thread

.thread:                                          ; preds = %2, %24, %14, %7, %4
  %.0 = phi i1 [ false, %4 ], [ false, %7 ], [ false, %14 ], [ %33, %24 ], [ false, %2 ]
  ret i1 %.0
}